(dp0
S'learn_rate'
p1
F0.9
sS'tau'
p2
F0.4
sS'weighting'
p3
S'Learn From Experts'
p4
sS'iterations'
p5
S'10'
p6
sS'use_shared_Q'
p7
I0
sS'action_selection'
p8
S'Greedy'
p9
sS'exploration_rate'
p10
F0.0
sS'cooperation_time'
p11
F5.0
sS'maze'
p12
S'Static maze 3'
p13
sS'cooperation_type'
p14
S'Trials'
p15
sS'reward_goal'
p16
F100.0
sS'repetitions'
p17
I1
sS'mov'
p18
S'Forward Backward Turn'
p19
sS'use_reward_matrix'
p20
I0
sS'discount'
p21
F1.0
sS'exploration_type'
p22
S'Constant'
p23
sS'expertness'
p24
S'Absolute'
p25
sS'number_agents'
p26
I3
sS'agent_speed'
p27
S'All Equal'
p28
sS'reward_step'
p29
F-0.1
sS'exp'
p30
S'Smart Random'
p31
sS'max_steps'
p32
I10000
sS'reward_wall'
p33
F-1.0
s.