(dp0
S'learn_rate'
p1
F1.0
sS'exploration_type'
p2
S'Constant'
p3
sS'expertness'
p4
S'Distance To Goal'
p5
sS'iterations'
p6
S'50'
p7
sS'number_agents'
p8
I5
sS'cooperation_time'
p9
F10.0
sS'reward_robot'
p10
F-0.01
sS'mov'
p11
S'Forward Backward Turn'
p12
sS'maze'
p13
S'Static maze 1'
p14
sS'weighting'
p15
S'Learn From All'
p16
sS'reward_step'
p17
F-0.01
sS'exp'
p18
S'Smart Random'
p19
sS'use_shared_Q'
p20
I0
sS'reward_goal'
p21
F100.0
sS'action_selection'
p22
S'Greedy'
p23
sS'discount'
p24
F0.9
sS'exploration_rate'
p25
F0.8
sS'repetitions'
p26
I1
sS'reward_wall'
p27
F-10.0
s.