(dp0
S'learn_rate'
p1
F1.0
sS'exploration_type'
p2
S'Constant'
p3
sS'expertness'
p4
S'Distance To Goal'
p5
sS'iterations'
p6
S'50'
p7
sS'number_agents'
p8
I3
sS'cooperation_time'
p9
F-1.0
sS'mov'
p10
S'North East South West'
p11
sS'maze'
p12
S'Static maze 1'
p13
sS'tau'
p14
F0.1
sS'weighting'
p15
S'Learn From All'
p16
sS'agent_speed'
p17
S'3 different speeds'
p18
sS'reward_step'
p19
F-0.01
sS'exp'
p20
S'Smart Random'
p21
sS'use_shared_Q'
p22
I0
sS'reward_goal'
p23
F10.0
sS'action_selection'
p24
S'Probabilistic'
p25
sS'discount'
p26
F1.0
sS'max_steps'
p27
I-1
sS'exploration_rate'
p28
F0.0
sS'repetitions'
p29
I100
sS'reward_wall'
p30
F-10.0
s.